target datalayout = "e-m:e-p270:32:32-p271:32:32-p272:64:64-i64:64-i128:128-f80:128-n8:16:32:64-S128"
target triple = "x86_64-unknown-linux-gnu"

%struct.ckh_t = type { i64, i64, i32, i32, ptr, ptr, ptr }
%struct.ckhc_t = type { ptr, ptr }

; Function Attrs: nounwind uwtable
define hidden zeroext i1 @ckh_iter(ptr noundef %ckh, ptr noundef %tabind, ptr noundef %key, ptr noundef %data) #0 {
entry:
  %retval = alloca i1, align 1
  %ckh.addr = alloca ptr, align 8
  %tabind.addr = alloca ptr, align 8
  %key.addr = alloca ptr, align 8
  %data.addr = alloca ptr, align 8
  %i = alloca i64, align 8
  %ncells = alloca i64, align 8
  store ptr %ckh, ptr %ckh.addr, align 8
  store ptr %tabind, ptr %tabind.addr, align 8
  store ptr %key, ptr %key.addr, align 8
  store ptr %data, ptr %data.addr, align 8
  %0 = load ptr, ptr %tabind.addr, align 8
  %1 = load i64, ptr %0, align 8
  store i64 %1, ptr %i, align 8
  %2 = load ptr, ptr %ckh.addr, align 8
  %lg_curbuckets = getelementptr inbounds %struct.ckh_t, ptr %2, i32 0, i32 3
  %3 = load i32, ptr %lg_curbuckets, align 4
  %add = add i32 %3, 2
  %sh_prom = zext i32 %add to i64
  %shl = shl i64 1, %sh_prom
  store i64 %shl, ptr %ncells, align 8
  br label %for.cond

for.cond:                                         ; preds = %for.inc, %entry
  %4 = load i64, ptr %i, align 8
  %5 = load i64, ptr %ncells, align 8
  %cmp = icmp ult i64 %4, %5
  br i1 %cmp, label %for.body, label %for.end

for.body:                                         ; preds = %for.cond
  %6 = load ptr, ptr %ckh.addr, align 8
  %tab = getelementptr inbounds %struct.ckh_t, ptr %6, i32 0, i32 6
  %7 = load ptr, ptr %tab, align 8
  %8 = load i64, ptr %i, align 8
  %arrayidx = getelementptr inbounds %struct.ckhc_t, ptr %7, i64 %8
  %key1 = getelementptr inbounds %struct.ckhc_t, ptr %arrayidx, i32 0, i32 0
  %9 = load ptr, ptr %key1, align 8
  %cmp2 = icmp ne ptr %9, null
  br i1 %cmp2, label %if.then, label %if.end15

if.then:                                          ; preds = %for.body
  %10 = load ptr, ptr %key.addr, align 8
  %cmp3 = icmp ne ptr %10, null
  br i1 %cmp3, label %if.then4, label %if.end

if.then4:                                         ; preds = %if.then
  %11 = load ptr, ptr %ckh.addr, align 8
  %tab5 = getelementptr inbounds %struct.ckh_t, ptr %11, i32 0, i32 6
  %12 = load ptr, ptr %tab5, align 8
  %13 = load i64, ptr %i, align 8
  %arrayidx6 = getelementptr inbounds %struct.ckhc_t, ptr %12, i64 %13
  %key7 = getelementptr inbounds %struct.ckhc_t, ptr %arrayidx6, i32 0, i32 0
  %14 = load ptr, ptr %key7, align 8
  %15 = load ptr, ptr %key.addr, align 8
  store ptr %14, ptr %15, align 8
  br label %if.end

if.end:                                           ; preds = %if.then4, %if.then
  %16 = load ptr, ptr %data.addr, align 8
  %cmp8 = icmp ne ptr %16, null
  br i1 %cmp8, label %if.then9, label %if.end13

if.then9:                                         ; preds = %if.end
  %17 = load ptr, ptr %ckh.addr, align 8
  %tab10 = getelementptr inbounds %struct.ckh_t, ptr %17, i32 0, i32 6
  %18 = load ptr, ptr %tab10, align 8
  %19 = load i64, ptr %i, align 8
  %arrayidx11 = getelementptr inbounds %struct.ckhc_t, ptr %18, i64 %19
  %data12 = getelementptr inbounds %struct.ckhc_t, ptr %arrayidx11, i32 0, i32 1
  %20 = load ptr, ptr %data12, align 8
  %21 = load ptr, ptr %data.addr, align 8
  store ptr %20, ptr %21, align 8
  br label %if.end13

if.end13:                                         ; preds = %if.then9, %if.end
  %22 = load i64, ptr %i, align 8
  %add14 = add i64 %22, 1
  %23 = load ptr, ptr %tabind.addr, align 8
  store i64 %add14, ptr %23, align 8
  store i1 false, ptr %retval, align 1
  br label %return

if.end15:                                         ; preds = %for.body
  br label %for.inc

for.inc:                                          ; preds = %if.end15
  %24 = load i64, ptr %i, align 8
  %inc = add i64 %24, 1
  store i64 %inc, ptr %i, align 8
  br label %for.cond, !llvm.loop !7

for.end:                                          ; preds = %for.cond
  store i1 true, ptr %retval, align 1
  br label %return

return:                                           ; preds = %for.end, %if.end13
  %25 = load i1, ptr %retval, align 1
  ret i1 %25
}