; Function Attrs: nofree norecurse nosync nounwind memory(read, argmem: readwrite, inaccessiblemem: none) uwtable
define hidden noundef zeroext i1 @ckh_iter(ptr nocapture noundef readonly %ckh, ptr nocapture noundef %tabind, ptr noundef writeonly %key, ptr noundef writeonly %data) local_unnamed_addr #2 {
entry:
  %0 = load i64, ptr %tabind, align 8
  %lg_curbuckets = getelementptr inbounds i8, ptr %ckh, i64 20
  %1 = load i32, ptr %lg_curbuckets, align 4
  %add = add i32 %1, 2
  %sh_prom = zext nneg i32 %add to i64
  %i.0.highbits15 = lshr i64 %0, %sh_prom
  %cmp16.not = icmp eq i64 %i.0.highbits15, 0
  br i1 %cmp16.not, label %for.body.lr.ph, label %return

for.body.lr.ph:                                   ; preds = %entry
  %tab = getelementptr inbounds i8, ptr %ckh, i64 40
  %2 = load ptr, ptr %tab, align 8
  br label %for.body

for.body:                                         ; preds = %for.body.lr.ph, %for.inc
  %i.017 = phi i64 [ %0, %for.body.lr.ph ], [ %inc, %for.inc ]
  %arrayidx = getelementptr inbounds %struct.ckhc_t, ptr %2, i64 %i.017
  %3 = load ptr, ptr %arrayidx, align 8
  %cmp2.not = icmp eq ptr %3, null
  br i1 %cmp2.not, label %for.inc, label %if.then

if.then:                                          ; preds = %for.body
  %cmp3.not = icmp eq ptr %key, null
  br i1 %cmp3.not, label %if.end, label %if.then4

if.then4:                                         ; preds = %if.then
  store ptr %3, ptr %key, align 8
  br label %if.end

if.end:                                           ; preds = %if.then4, %if.then
  %cmp8.not = icmp eq ptr %data, null
  br i1 %cmp8.not, label %if.end13, label %if.then9

if.then9:                                         ; preds = %if.end
  %4 = load ptr, ptr %tab, align 8
  %data12 = getelementptr inbounds %struct.ckhc_t, ptr %4, i64 %i.017, i32 1
  %5 = load ptr, ptr %data12, align 8
  store ptr %5, ptr %data, align 8
  br label %if.end13

if.end13:                                         ; preds = %if.then9, %if.end
  %add14 = add i64 %i.017, 1
  store i64 %add14, ptr %tabind, align 8
  br label %return

for.inc:                                          ; preds = %for.body
  %inc = add i64 %i.017, 1
  %i.0.highbits = lshr i64 %inc, %sh_prom
  %cmp.not = icmp eq i64 %i.0.highbits, 0
  br i1 %cmp.not, label %for.body, label %return, !llvm.loop !8

return:                                           ; preds = %for.inc, %entry, %if.end13
  %cmp13 = phi i1 [ false, %if.end13 ], [ true, %entry ], [ true, %for.inc ]
  ret i1 %cmp13
}